target datalayout = "e-m:e-p270:32:32-p271:32:32-p272:64:64-i64:64-i128:128-f80:128-n8:16:32:64-S128"
target triple = "x86_64-unknown-linux-gnu"

; Function Attrs: mustprogress nounwind uwtable
define dso_local void @_ZNK11btMultiBody9mulMatrixEPKfS1_iiiiPf(ptr noundef nonnull align 8 dereferenceable(640) %this, ptr noundef %pA, ptr noundef %pB, i32 noundef %rowsA, i32 noundef %colsA, i32 noundef %rowsB, i32 noundef %colsB, ptr noundef %pC) #1 align 2 {
entry:
  %this.addr = alloca ptr, align 8
  %pA.addr = alloca ptr, align 8
  %pB.addr = alloca ptr, align 8
  %rowsA.addr = alloca i32, align 4
  %colsA.addr = alloca i32, align 4
  %rowsB.addr = alloca i32, align 4
  %colsB.addr = alloca i32, align 4
  %pC.addr = alloca ptr, align 8
  %row = alloca i32, align 4
  %col = alloca i32, align 4
  %inner = alloca i32, align 4
  store ptr %this, ptr %this.addr, align 8
  store ptr %pA, ptr %pA.addr, align 8
  store ptr %pB, ptr %pB.addr, align 8
  store i32 %rowsA, ptr %rowsA.addr, align 4
  store i32 %colsA, ptr %colsA.addr, align 4
  store i32 %rowsB, ptr %rowsB.addr, align 4
  store i32 %colsB, ptr %colsB.addr, align 4
  store ptr %pC, ptr %pC.addr, align 8
  store i32 0, ptr %row, align 4
  br label %for.cond

for.cond:                                         ; preds = %for.inc24, %entry
  %0 = load i32, ptr %row, align 4
  %1 = load i32, ptr %rowsA.addr, align 4
  %cmp = icmp slt i32 %0, %1
  br i1 %cmp, label %for.body, label %for.end26

for.body:                                         ; preds = %for.cond
  store i32 0, ptr %col, align 4
  br label %for.cond2

for.cond2:                                        ; preds = %for.inc21, %for.body
  %2 = load i32, ptr %col, align 4
  %3 = load i32, ptr %colsB.addr, align 4
  %cmp3 = icmp slt i32 %2, %3
  br i1 %cmp3, label %for.body4, label %for.end23

for.body4:                                        ; preds = %for.cond2
  %4 = load ptr, ptr %pC.addr, align 8
  %5 = load i32, ptr %row, align 4
  %6 = load i32, ptr %colsB.addr, align 4
  %mul = mul nsw i32 %5, %6
  %7 = load i32, ptr %col, align 4
  %add = add nsw i32 %mul, %7
  %idxprom = sext i32 %add to i64
  %arrayidx = getelementptr inbounds float, ptr %4, i64 %idxprom
  store float 0.000000e+00, ptr %arrayidx, align 4
  store i32 0, ptr %inner, align 4
  br label %for.cond5

for.cond5:                                        ; preds = %for.inc, %for.body4
  %8 = load i32, ptr %inner, align 4
  %9 = load i32, ptr %rowsB.addr, align 4
  %cmp6 = icmp slt i32 %8, %9
  br i1 %cmp6, label %for.body7, label %for.end

for.body7:                                        ; preds = %for.cond5
  %10 = load ptr, ptr %pA.addr, align 8
  %11 = load i32, ptr %row, align 4
  %12 = load i32, ptr %colsA.addr, align 4
  %mul8 = mul nsw i32 %11, %12
  %13 = load i32, ptr %inner, align 4
  %add9 = add nsw i32 %mul8, %13
  %idxprom10 = sext i32 %add9 to i64
  %arrayidx11 = getelementptr inbounds float, ptr %10, i64 %idxprom10
  %14 = load float, ptr %arrayidx11, align 4
  %15 = load ptr, ptr %pB.addr, align 8
  %16 = load i32, ptr %col, align 4
  %17 = load i32, ptr %inner, align 4
  %18 = load i32, ptr %colsB.addr, align 4
  %mul12 = mul nsw i32 %17, %18
  %add13 = add nsw i32 %16, %mul12
  %idxprom14 = sext i32 %add13 to i64
  %arrayidx15 = getelementptr inbounds float, ptr %15, i64 %idxprom14
  %19 = load float, ptr %arrayidx15, align 4
  %20 = load ptr, ptr %pC.addr, align 8
  %21 = load i32, ptr %row, align 4
  %22 = load i32, ptr %colsB.addr, align 4
  %mul17 = mul nsw i32 %21, %22
  %23 = load i32, ptr %col, align 4
  %add18 = add nsw i32 %mul17, %23
  %idxprom19 = sext i32 %add18 to i64
  %arrayidx20 = getelementptr inbounds float, ptr %20, i64 %idxprom19
  %24 = load float, ptr %arrayidx20, align 4
  %25 = call float @llvm.fmuladd.f32(float %14, float %19, float %24)
  store float %25, ptr %arrayidx20, align 4
  br label %for.inc

for.inc:                                          ; preds = %for.body7
  %26 = load i32, ptr %inner, align 4
  %inc = add nsw i32 %26, 1
  store i32 %inc, ptr %inner, align 4
  br label %for.cond5, !llvm.loop !48

for.end:                                          ; preds = %for.cond5
  br label %for.inc21

for.inc21:                                        ; preds = %for.end
  %27 = load i32, ptr %col, align 4
  %inc22 = add nsw i32 %27, 1
  store i32 %inc22, ptr %col, align 4
  br label %for.cond2, !llvm.loop !49

for.end23:                                        ; preds = %for.cond2
  br label %for.inc24

for.inc24:                                        ; preds = %for.end23
  %28 = load i32, ptr %row, align 4
  %inc25 = add nsw i32 %28, 1
  store i32 %inc25, ptr %row, align 4
  br label %for.cond, !llvm.loop !50

for.end26:                                        ; preds = %for.cond
  ret void
}