; Function Attrs: mustprogress nofree norecurse nosync nounwind memory(argmem: readwrite) uwtable
define dso_local void @_ZNK11btMultiBody9mulMatrixEPKfS1_iiiiPf(ptr nocapture noundef nonnull readnone align 8 dereferenceable(640) %this, ptr nocapture noundef readonly %pA, ptr nocapture noundef readonly %pB, i32 noundef %rowsA, i32 noundef %colsA, i32 noundef %rowsB, i32 noundef %colsB, ptr nocapture noundef writeonly %pC) local_unnamed_addr #14 align 2 {
entry:
  %cmp20 = icmp sgt i32 %rowsA, 0
  %cmp318 = icmp sgt i32 %colsB, 0
  %or.cond = and i1 %cmp20, %cmp318
  br i1 %or.cond, label %for.cond2.preheader.lr.ph.split.us, label %for.end26

for.cond2.preheader.lr.ph.split.us:               ; preds = %entry
  %cmp616 = icmp sgt i32 %rowsB, 0
  %0 = zext nneg i32 %colsB to i64
  %wide.trip.count56 = zext nneg i32 %rowsA to i64
  br i1 %cmp616, label %for.cond2.preheader.us.us.preheader, label %for.cond2.preheader.us.preheader

for.cond2.preheader.us.preheader:                 ; preds = %for.cond2.preheader.lr.ph.split.us
  %1 = shl nuw nsw i64 %0, 2
  br label %for.cond2.preheader.us

for.cond2.preheader.us.us.preheader:              ; preds = %for.cond2.preheader.lr.ph.split.us
  %2 = sext i32 %colsA to i64
  %wide.trip.count49 = zext nneg i32 %colsB to i64
  %wide.trip.count42 = zext nneg i32 %rowsB to i64
  br label %for.cond2.preheader.us.us

for.cond2.preheader.us.us:                        ; preds = %for.cond2.preheader.us.us.preheader, %for.cond2.for.inc24_crit_edge.split.us.us.us
  %indvars.iv51 = phi i64 [ 0, %for.cond2.preheader.us.us.preheader ], [ %indvars.iv.next52, %for.cond2.for.inc24_crit_edge.split.us.us.us ]
  %3 = mul nsw i64 %indvars.iv51, %0
  %4 = mul nsw i64 %indvars.iv51, %2
  %invariant.gep61 = getelementptr float, ptr %pC, i64 %3
  %invariant.gep = getelementptr float, ptr %pA, i64 %4
  br label %for.body4.us.us.us

for.body4.us.us.us:                               ; preds = %for.cond5.for.inc21_crit_edge.us.us.us, %for.cond2.preheader.us.us
  %indvars.iv45 = phi i64 [ %indvars.iv.next46, %for.cond5.for.inc21_crit_edge.us.us.us ], [ 0, %for.cond2.preheader.us.us ]
  %gep62 = getelementptr float, ptr %invariant.gep61, i64 %indvars.iv45
  store float 0.000000e+00, ptr %gep62, align 4
  %invariant.gep59 = getelementptr float, ptr %pB, i64 %indvars.iv45
  br label %for.body7.us.us.us

for.body7.us.us.us:                               ; preds = %for.body7.us.us.us, %for.body4.us.us.us
  %indvars.iv36 = phi i64 [ %indvars.iv.next37, %for.body7.us.us.us ], [ 0, %for.body4.us.us.us ]
  %5 = phi float [ %9, %for.body7.us.us.us ], [ 0.000000e+00, %for.body4.us.us.us ]
  %gep = getelementptr float, ptr %invariant.gep, i64 %indvars.iv36
  %6 = load float, ptr %gep, align 4
  %7 = mul nsw i64 %indvars.iv36, %0
  %gep60 = getelementptr float, ptr %invariant.gep59, i64 %7
  %8 = load float, ptr %gep60, align 4
  %9 = tail call float @llvm.fmuladd.f32(float %6, float %8, float %5)
  store float %9, ptr %gep62, align 4
  %indvars.iv.next37 = add nuw nsw i64 %indvars.iv36, 1
  %exitcond43.not = icmp eq i64 %indvars.iv.next37, %wide.trip.count42
  br i1 %exitcond43.not, label %for.cond5.for.inc21_crit_edge.us.us.us, label %for.body7.us.us.us, !llvm.loop !82

for.cond5.for.inc21_crit_edge.us.us.us:           ; preds = %for.body7.us.us.us
  %indvars.iv.next46 = add nuw nsw i64 %indvars.iv45, 1
  %exitcond50.not = icmp eq i64 %indvars.iv.next46, %wide.trip.count49
  br i1 %exitcond50.not, label %for.cond2.for.inc24_crit_edge.split.us.us.us, label %for.body4.us.us.us, !llvm.loop !152

for.cond2.for.inc24_crit_edge.split.us.us.us:     ; preds = %for.cond5.for.inc21_crit_edge.us.us.us
  %indvars.iv.next52 = add nuw nsw i64 %indvars.iv51, 1
  %exitcond57.not = icmp eq i64 %indvars.iv.next52, %wide.trip.count56
  br i1 %exitcond57.not, label %for.end26, label %for.cond2.preheader.us.us, !llvm.loop !83

for.cond2.preheader.us:                           ; preds = %for.cond2.preheader.us.preheader, %for.cond2.preheader.us
  %indvars.iv = phi i64 [ 0, %for.cond2.preheader.us.preheader ], [ %indvars.iv.next, %for.cond2.preheader.us ]
  %10 = trunc i64 %indvars.iv to i32
  %11 = mul i32 %10, %colsB
  %12 = zext i32 %11 to i64
  %13 = shl nuw nsw i64 %12, 2
  %scevgep = getelementptr i8, ptr %pC, i64 %13
  tail call void @llvm.memset.p0.i64(ptr align 4 %scevgep, i8 0, i64 %1, i1 false)
  %indvars.iv.next = add nuw nsw i64 %indvars.iv, 1
  %exitcond.not = icmp eq i64 %indvars.iv.next, %wide.trip.count56
  br i1 %exitcond.not, label %for.end26, label %for.cond2.preheader.us, !llvm.loop !83

for.end26:                                        ; preds = %for.cond2.preheader.us, %for.cond2.for.inc24_crit_edge.split.us.us.us, %entry
  ret void
}